; Function Attrs: mustprogress uwtable
define void @_ZN9grpc_core12OrcaProducer6OrphanEv(ptr noundef nonnull align 8 dereferenceable(112) %this) unnamed_addr #3 align 2 personality ptr @__gxx_personality_v0 {
entry:
  %mu_ = getelementptr inbounds i8, ptr %this, i64 40
  tail call void @_ZN4absl12lts_202308025Mutex4LockEv(ptr noundef nonnull align 8 dereferenceable(8) %mu_)
  %stream_client_ = getelementptr inbounds i8, ptr %this, i64 104
  %0 = load ptr, ptr %stream_client_, align 8
  store ptr null, ptr %stream_client_, align 8
  %tobool.not.i.i = icmp eq ptr %0, null
  br i1 %tobool.not.i.i, label %_ZNSt10unique_ptrIN9grpc_core22SubchannelStreamClientENS0_16OrphanableDeleteEE5resetEPS1_.exit, label %if.then.i.i

if.then.i.i:                                      ; preds = %entry
  %vtable.i.i.i = load ptr, ptr %0, align 8
  %1 = load ptr, ptr %vtable.i.i.i, align 8
  invoke void %1(ptr noundef nonnull align 8 dereferenceable(448) %0)
          to label %_ZNSt10unique_ptrIN9grpc_core22SubchannelStreamClientENS0_16OrphanableDeleteEE5resetEPS1_.exit unwind label %terminate.lpad.i.i

terminate.lpad.i.i:                               ; preds = %if.then.i.i
  %2 = landingpad { ptr, i32 }
          catch ptr null
  %3 = extractvalue { ptr, i32 } %2, 0
  tail call void @__clang_call_terminate(ptr %3) #21
  unreachable

_ZNSt10unique_ptrIN9grpc_core22SubchannelStreamClientENS0_16OrphanableDeleteEE5resetEPS1_.exit: ; preds = %entry, %if.then.i.i
  invoke void @_ZN4absl12lts_202308025Mutex6UnlockEv(ptr noundef nonnull align 8 dereferenceable(8) %mu_)
          to label %_ZN4absl12lts_202308029MutexLockD2Ev.exit unwind label %terminate.lpad.i

terminate.lpad.i:                                 ; preds = %_ZNSt10unique_ptrIN9grpc_core22SubchannelStreamClientENS0_16OrphanableDeleteEE5resetEPS1_.exit
  %4 = landingpad { ptr, i32 }
          catch ptr null
  %5 = extractvalue { ptr, i32 } %4, 0
  tail call void @__clang_call_terminate(ptr %5) #21
  unreachable

_ZN4absl12lts_202308029MutexLockD2Ev.exit:        ; preds = %_ZNSt10unique_ptrIN9grpc_core22SubchannelStreamClientENS0_16OrphanableDeleteEE5resetEPS1_.exit
  %subchannel_ = getelementptr inbounds i8, ptr %this, i64 16
  %6 = load ptr, ptr %subchannel_, align 8
  %cmp.i.not = icmp eq ptr %6, null
  br i1 %cmp.i.not, label %if.then, label %do.end

if.then:                                          ; preds = %_ZN4absl12lts_202308029MutexLockD2Ev.exit
  tail call void @gpr_assertion_failed(ptr noundef nonnull @.str.2, i32 noundef 228, ptr noundef nonnull @.str.3) #24
  unreachable

do.end:                                           ; preds = %_ZN4absl12lts_202308029MutexLockD2Ev.exit
  %connectivity_watcher_ = getelementptr inbounds i8, ptr %this, i64 32
  %7 = load ptr, ptr %connectivity_watcher_, align 8
  tail call void @_ZN9grpc_core10Subchannel28CancelConnectivityStateWatchEPNS0_33ConnectivityStateWatcherInterfaceE(ptr noundef nonnull align 8 dereferenceable(928) %6, ptr noundef %7)
  %8 = load ptr, ptr %subchannel_, align 8
  tail call void @_ZN9grpc_core10Subchannel18RemoveDataProducerEPNS0_21DataProducerInterfaceE(ptr noundef nonnull align 8 dereferenceable(928) %8, ptr noundef nonnull %this)
  ret void
}